Archive member included because of file (symbol)

C:\PROGRA~2\GCCFOR~1.201\rx-elf\rx-elf/lib/gcc/rx-elf/4.8.0.201603-GNURX/no-fpu-libs\libgcc.a(_addsub_sf.o)
                              ./src/asservissement/asservissement.o (__subsf3)
C:\PROGRA~2\GCCFOR~1.201\rx-elf\rx-elf/lib/gcc/rx-elf/4.8.0.201603-GNURX/no-fpu-libs\libgcc.a(_mul_sf.o)
                              ./src/asservissement/asservissement.o (__mulsf3)
C:\PROGRA~2\GCCFOR~1.201\rx-elf\rx-elf/lib/gcc/rx-elf/4.8.0.201603-GNURX/no-fpu-libs\libgcc.a(_div_sf.o)
                              ./src/asservissement/asservissement.o (__divsf3)
C:\PROGRA~2\GCCFOR~1.201\rx-elf\rx-elf/lib/gcc/rx-elf/4.8.0.201603-GNURX/no-fpu-libs\libgcc.a(_sf_to_si.o)
                              ./src/asservissement/asservissement.o (__fixsfsi)
C:\PROGRA~2\GCCFOR~1.201\rx-elf\rx-elf/lib/gcc/rx-elf/4.8.0.201603-GNURX/no-fpu-libs\libgcc.a(_thenan_sf.o)
                              C:\PROGRA~2\GCCFOR~1.201\rx-elf\rx-elf/lib/gcc/rx-elf/4.8.0.201603-GNURX/no-fpu-libs\libgcc.a(_addsub_sf.o) (__thenan_sf)
C:\PROGRA~2\GCCFOR~1.201\rx-elf\rx-elf/lib/gcc/rx-elf/4.8.0.201603-GNURX/no-fpu-libs\libgcc.a(_pack_sf.o)
                              C:\PROGRA~2\GCCFOR~1.201\rx-elf\rx-elf/lib/gcc/rx-elf/4.8.0.201603-GNURX/no-fpu-libs\libgcc.a(_addsub_sf.o) (__pack_f)
C:\PROGRA~2\GCCFOR~1.201\rx-elf\rx-elf/lib/gcc/rx-elf/4.8.0.201603-GNURX/no-fpu-libs\libgcc.a(_unpack_sf.o)
                              C:\PROGRA~2\GCCFOR~1.201\rx-elf\rx-elf/lib/gcc/rx-elf/4.8.0.201603-GNURX/no-fpu-libs\libgcc.a(_addsub_sf.o) (__unpack_f)

Memory Configuration

Name             Origin             Length             Attributes
RAM              0x00000000         0x00010000
ROM              0xfff80000         0x00080000
*default*        0x00000000         0xffffffff

Linker script and memory map


.fvectors       0xffffff80       0x80
 *(.fvectors)
 .fvectors      0xffffff80       0x80 ./src/vector_table.o
                0xffffff80                HardwareVectors

.text           0xfff80000     0x10c8
 *(.text)
 .text          0xfff80000       0x7a ./src/reset_program.o
                0xfff80000                PowerON_Reset
 *(.text.*)
 *(P)
 P              0xfff8007a       0xe4 ./src/asservissement/asservissement.o
                0xfff8007a                init_echant
                0xfff8014a                start_echant
 P              0xfff8015e       0xf2 ./src/encoder/decoder_quadra.o
                0xfff8015e                mtclk_init
                0xfff8023c                mtclk_start
 P              0xfff80250      0x1cb ./src/hardware_setup.o
                0xfff80250                HardwareSetup
 P              0xfff8041b        0x0 ./src/reset_program.o
 P              0xfff8041b       0xb0 ./src/rx210.o
                0xfff8041b                main
 P              0xfff804cb        0x0 ./src/vector_table.o
 P              0xfff804cb      0x590 ./src/interrupt/interrupt_handlers.o
                0xfff804cb                Excep_SuperVisorInst
                0xfff804d3                Excep_UndefinedInst
                0xfff804db                NonMaskableInterrupt
                0xfff804e3                Dummy
                0xfff804eb                Excep_BRK
                0xfff804f3                Excep_BSC_BUSERR
                0xfff804fb                Excep_FCU_FIFERR
                0xfff80503                Excep_FCU_FRDYI
                0xfff8050b                Excep_ICU_SWINT
                0xfff80513                Excep_CMT0_CMI0
                0xfff8051b                Excep_CMT1_CMI1
                0xfff80523                Excep_CMT2_CMI2
                0xfff8052b                Excep_CMT3_CMI3
                0xfff80533                Excep_CAC_FERRF
                0xfff8053b                Excep_CAC_MENDF
                0xfff80543                Excep_CAC_OVFF
                0xfff8054b                Excep_RSPI0_SPEI0
                0xfff80553                Excep_RSPI0_SPRI0
                0xfff8055b                Excep_RSPI0_SPTI0
                0xfff80563                Excep_RSPI0_SPII0
                0xfff8056b                Excep_DOC_DOPCF
                0xfff80573                Excep_CMPB_CMPB0
                0xfff8057b                Excep_CMPB_CMPB1
                0xfff80583                Excep_RTC_CUP
                0xfff8058b                Excep_ICU_IRQ0
                0xfff80593                Excep_ICU_IRQ1
                0xfff8059b                Excep_ICU_IRQ2
                0xfff805a3                Excep_ICU_IRQ3
                0xfff805ab                Excep_ICU_IRQ4
                0xfff805b3                Excep_ICU_IRQ5
                0xfff805bb                Excep_ICU_IRQ6
                0xfff805c3                Excep_ICU_IRQ7
                0xfff805cb                Excep_LVD_LVD1
                0xfff805d3                Excep_LVD_LVD2
                0xfff805db                Excep_RTC_ALM
                0xfff805e3                Excep_RTC_PRD
                0xfff805eb                Excep_S12AD_S12ADI0
                0xfff805f3                Excep_S12AD_GBADI
                0xfff805fb                Excep_ELC_ELSR18I
                0xfff80603                Excep_ELC_ELSR19I
                0xfff8060b                Excep_MTU0_TGIA0
                0xfff80613                Excep_MTU0_TGIB0
                0xfff8061b                Excep_MTU0_TGIC0
                0xfff80623                Excep_MTU0_TGID0
                0xfff8062b                Excep_MTU0_TCIV0
                0xfff80663                Excep_MTU0_TGIE0
                0xfff8066b                Excep_MTU0_TGIF0
                0xfff80673                Excep_MTU1_TGIA1
                0xfff8067b                Excep_MTU1_TGIB1
                0xfff80683                Excep_MTU1_TCIV1
                0xfff8068b                Excep_MTU1_TCIU1
                0xfff80693                Excep_MTU2_TGIA2
                0xfff8069b                Excep_MTU2_TGIB2
                0xfff806a3                Excep_MTU2_TCIV2
                0xfff806ab                Excep_MTU2_TCIU2
                0xfff806b3                Excep_MTU3_TGIA3
                0xfff806bb                Excep_MTU3_TGIB3
                0xfff806c3                Excep_MTU3_TGIC3
                0xfff806cb                Excep_MTU3_TGID3
                0xfff806d3                Excep_MTU3_TCIV3
                0xfff806db                Excep_MTU4_TGIA4
                0xfff806e3                Excep_MTU4_TGIB4
                0xfff806eb                Excep_MTU4_TGIC4
                0xfff806f3                Excep_MTU4_TGID4
                0xfff806fb                Excep_MTU4_TCIV4
                0xfff80703                Excep_MTU5_TGIU5
                0xfff8070b                Excep_MTU5_TGIV5
                0xfff80713                Excep_MTU5_TGIW5
                0xfff8071b                Excep_TPU0_TGI0A
                0xfff80723                Excep_TPU0_TGI0B
                0xfff8072b                Excep_TPU0_TGI0C
                0xfff80733                Excep_TPU0_TGI0D
                0xfff8073b                Excep_TPU0_TCI0V
                0xfff80743                Excep_TPU1_TGI1A
                0xfff8074b                Excep_TPU1_TGI1B
                0xfff80753                Excep_TPU1_TCI1V
                0xfff8075b                Excep_TPU1_TCI1U
                0xfff80763                Excep_TPU2_TGI2A
                0xfff8076b                Excep_TPU2_TGI2B
                0xfff80773                Excep_TPU2_TCI2V
                0xfff8077b                Excep_TPU2_TCI2U
                0xfff80783                Excep_TPU3_TGI3A
                0xfff8078b                Excep_TPU3_TGI3B
                0xfff80793                Excep_TPU3_TGI3C
                0xfff8079b                Excep_TPU3_TGI3D
                0xfff807a3                Excep_TPU3_TCI3V
                0xfff807ab                Excep_TPU4_TGI4A
                0xfff807b3                Excep_TPU4_TGI4B
                0xfff807bb                Excep_TPU4_TCI4V
                0xfff807c3                Excep_TPU4_TCI4U
                0xfff807cb                Excep_TPU5_TGI5A
                0xfff807d3                Excep_TPU5_TGI5B
                0xfff807db                Excep_TPU5_TCI5V
                0xfff807e3                Excep_TPU5_TCI5U
                0xfff807eb                Excep_POE_OEI1
                0xfff807f3                Excep_POE_OEI2
                0xfff807fb                Excep_TMR0_CMIA0
                0xfff80803                Excep_TMR0_CMIB0
                0xfff8080b                Excep_TMR0_OVI0
                0xfff80813                Excep_TMR1_CMIA1
                0xfff8081b                Excep_TMR1_CMIB1
                0xfff80823                Excep_TMR1_OVI1
                0xfff8082b                Excep_TMR2_CMIA2
                0xfff80833                Excep_TMR2_CMIB2
                0xfff8083b                Excep_TMR2_OVI2
                0xfff80843                Excep_TMR3_CMIA3
                0xfff8084b                Excep_TMR3_CMIB3
                0xfff80853                Excep_TMR3_OVI3
                0xfff8085b                Excep_SCI2_ERI2
                0xfff80863                Excep_SCI2_RXI2
                0xfff8086b                Excep_SCI2_TXI2
                0xfff80873                Excep_SCI2_TEI2
                0xfff8087b                Excep_SCI3_ERI3
                0xfff80883                Excep_SCI3_RXI3
                0xfff8088b                Excep_SCI3_TXI3
                0xfff80893                Excep_SCI3_TEI3
                0xfff8089b                Excep_SCI4_ERI4
                0xfff808a3                Excep_SCI4_RXI4
                0xfff808ab                Excep_SCI4_TXI4
                0xfff808b3                Excep_SCI4_TEI4
                0xfff808bb                Excep_DMAC_DMAC0I
                0xfff808c3                Excep_DMAC_DMAC1I
                0xfff808cb                Excep_DMAC_DMAC2I
                0xfff808d3                Excep_DMAC_DMAC3I
                0xfff808db                Excep_SCI7_ERI7
                0xfff808e3                Excep_SCI7_RXI7
                0xfff808eb                Excep_SCI7_TXI7
                0xfff808f3                Excep_SCI7_TEI7
                0xfff808fb                Excep_SCI10_ERI10
                0xfff80903                Excep_SCI10_RXI10
                0xfff8090b                Excep_SCI10_TXI10
                0xfff80913                Excep_SCI10_TEI10
                0xfff8091b                Excep_SCI0_ERI0
                0xfff80923                Excep_SCI0_RXI0
                0xfff8092b                Excep_SCI0_TXI0
                0xfff80933                Excep_SCI0_TEI0
                0xfff8093b                Excep_SCI1_ERI1
                0xfff80943                Excep_SCI1_RXI1
                0xfff8094b                Excep_SCI1_TXI1
                0xfff80953                Excep_SCI1_TEI1
                0xfff8095b                Excep_SCI5_ERI5
                0xfff80963                Excep_SCI5_RXI5
                0xfff8096b                Excep_SCI5_TXI5
                0xfff80973                Excep_SCI5_TEI5
                0xfff8097b                Excep_SCI6_ERI6
                0xfff80983                Excep_SCI6_RXI6
                0xfff8098b                Excep_SCI6_TXI6
                0xfff80993                Excep_SCI6_TEI6
                0xfff8099b                Excep_SCI8_ERI8
                0xfff809a3                Excep_SCI8_RXI8
                0xfff809ab                Excep_SCI8_TXI8
                0xfff809b3                Excep_SCI8_TEI8
                0xfff809bb                Excep_SCI9_ERI9
                0xfff809c3                Excep_SCI9_RXI9
                0xfff809cb                Excep_SCI9_TXI9
                0xfff809d3                Excep_SCI9_TEI9
                0xfff809db                Excep_SCI12_ERI12
                0xfff809e3                Excep_SCI12_RXI12
                0xfff809eb                Excep_SCI12_TXI12
                0xfff809f3                Excep_SCI12_TEI12
                0xfff809fb                Excep_SCI12_SCIX0
                0xfff80a03                Excep_SCI12_SCIX1
                0xfff80a0b                Excep_SCI12_SCIX2
                0xfff80a13                Excep_SCI12_SCIX3
                0xfff80a1b                Excep_RIIC0_EEI0
                0xfff80a23                Excep_RIIC0_RXI0
                0xfff80a2b                Excep_RIIC0_TXI0
                0xfff80a33                Excep_RIIC0_TEI0
                0xfff80a3b                Excep_SCI11_ERI11
                0xfff80a43                Excep_SCI11_RXI11
                0xfff80a4b                Excep_SCI11_TXI11
                0xfff80a53                Excep_SCI11_TEI11
 P              0xfff80a5b       0x63 ./src/pwm/pwm_asser_RX210.o
                0xfff80a5b                PWM_asser_init
 P              0xfff80abe       0x8c ./src/uart/uart.o
                0xfff80abe                uart9_init
 *fill*         0xfff80b4a        0x6 
 P              0xfff80b50      0x1d0 C:\PROGRA~2\GCCFOR~1.201\rx-elf\rx-elf/lib/gcc/rx-elf/4.8.0.201603-GNURX/no-fpu-libs\libgcc.a(_addsub_sf.o)
                0xfff80cab                __addsf3
                0xfff80cab                _COM_ADDd
                0xfff80cab                _COM_ADDf
                0xfff80cdf                _COM_SUBd
                0xfff80cdf                _COM_SUBf
                0xfff80cdf                __subsf3
 P              0xfff80d20      0x128 C:\PROGRA~2\GCCFOR~1.201\rx-elf\rx-elf/lib/gcc/rx-elf/4.8.0.201603-GNURX/no-fpu-libs\libgcc.a(_mul_sf.o)
                0xfff80d20                _COM_MULd
                0xfff80d20                __mulsf3
                0xfff80d20                _COM_MULf
 P              0xfff80e48       0xd0 C:\PROGRA~2\GCCFOR~1.201\rx-elf\rx-elf/lib/gcc/rx-elf/4.8.0.201603-GNURX/no-fpu-libs\libgcc.a(_div_sf.o)
                0xfff80e48                _COM_DIVd
                0xfff80e48                __divsf3
                0xfff80e48                _COM_DIVf
 P              0xfff80f18       0x58 C:\PROGRA~2\GCCFOR~1.201\rx-elf\rx-elf/lib/gcc/rx-elf/4.8.0.201603-GNURX/no-fpu-libs\libgcc.a(_sf_to_si.o)
                0xfff80f18                _COM_CONVf32s
                0xfff80f18                _COM_CONVd32s
                0xfff80f18                __fixsfsi
 P              0xfff80f70        0x0 C:\PROGRA~2\GCCFOR~1.201\rx-elf\rx-elf/lib/gcc/rx-elf/4.8.0.201603-GNURX/no-fpu-libs\libgcc.a(_thenan_sf.o)
 P              0xfff80f70       0xe8 C:\PROGRA~2\GCCFOR~1.201\rx-elf\rx-elf/lib/gcc/rx-elf/4.8.0.201603-GNURX/no-fpu-libs\libgcc.a(_pack_sf.o)
                0xfff80f70                __pack_f
 P              0xfff81058       0x70 C:\PROGRA~2\GCCFOR~1.201\rx-elf\rx-elf/lib/gcc/rx-elf/4.8.0.201603-GNURX/no-fpu-libs\libgcc.a(_unpack_sf.o)
                0xfff81058                __unpack_f
                0xfff810c8                etext = .

.rvectors       0xfff810c8      0x400
                0xfff810c8                _rvectors_start = .
 *(.rvectors)
 .rvectors      0xfff810c8      0x400 ./src/vector_table.o
                0xfff810c8                RelocatableVectors
                0xfff814c8                _rvectors_end = .

.init           0xfff814c8        0x0
 *(.init)
                0xfff814c8                __preinit_array_start = .
 *(.preinit_array)
                0xfff814c8                __preinit_array_end = .
                0xfff814c8                __init_array_start = ((. + 0x3) & 0xfffffffc)
 *(.init_array)
 *(SORT(.init_array.*))
                0xfff814c8                __init_array_end = .
                0xfff814c8                __fini_array_start = .
 *(.fini_array)
 *(SORT(.fini_array.*))
                0xfff814c8                __fini_array_end = .

.fini
 *(.fini)

.got
 *(.got)
 *(.got.plt)

.rodata         0xfff814c8       0x10
 *(.rodata)
 *(.rodata.*)
 *(C_1)
 *(C_2)
 *(C)
 C              0xfff814c8       0x10 C:\PROGRA~2\GCCFOR~1.201\rx-elf\rx-elf/lib/gcc/rx-elf/4.8.0.201603-GNURX/no-fpu-libs\libgcc.a(_thenan_sf.o)
                0xfff814c8                __thenan_sf
                0xfff814d8                _erodata = .

.eh_frame_hdr
 *(.eh_frame_hdr)

.eh_frame
 *(.eh_frame)

.jcr
 *(.jcr)

.tors           0xfff814d8        0x0
                0xfff814d8                __CTOR_LIST__ = .
                0xfff814d8                . = ALIGN (0x2)
                0xfff814d8                ___ctors = .
 *(.ctors)
                0xfff814d8                ___ctors_end = .
                0xfff814d8                __CTOR_END__ = .
                0xfff814d8                __DTOR_LIST__ = .
                0xfff814d8                ___dtors = .
 *(.dtors)
                0xfff814d8                ___dtors_end = .
                0xfff814d8                __DTOR_END__ = .
                0xfff814d8                . = ALIGN (0x2)
                0xfff814d8                _mdata = .

.ustack         0x00000200        0x0
                0x00000200                _ustack = .

.istack         0x00000100        0x0
                0x00000100                _istack = .

.data           0x00000204        0x0 load address 0xfff814d8
                0x00000204                _data = .
 *(.data)
 *(.data.*)
 *(D)
 *(D_1)
 D_1            0x00000204        0x0 ./src/asservissement/asservissement.o
 D_1            0x00000204        0x0 ./src/encoder/decoder_quadra.o
 D_1            0x00000204        0x0 ./src/hardware_setup.o
 D_1            0x00000204        0x0 ./src/reset_program.o
 D_1            0x00000204        0x0 ./src/rx210.o
 D_1            0x00000204        0x0 ./src/vector_table.o
 D_1            0x00000204        0x0 ./src/interrupt/interrupt_handlers.o
 D_1            0x00000204        0x0 ./src/pwm/pwm_asser_RX210.o
 D_1            0x00000204        0x0 ./src/uart/uart.o
 D_1            0x00000204        0x0 C:\PROGRA~2\GCCFOR~1.201\rx-elf\rx-elf/lib/gcc/rx-elf/4.8.0.201603-GNURX/no-fpu-libs\libgcc.a(_addsub_sf.o)
 D_1            0x00000204        0x0 C:\PROGRA~2\GCCFOR~1.201\rx-elf\rx-elf/lib/gcc/rx-elf/4.8.0.201603-GNURX/no-fpu-libs\libgcc.a(_mul_sf.o)
 D_1            0x00000204        0x0 C:\PROGRA~2\GCCFOR~1.201\rx-elf\rx-elf/lib/gcc/rx-elf/4.8.0.201603-GNURX/no-fpu-libs\libgcc.a(_div_sf.o)
 D_1            0x00000204        0x0 C:\PROGRA~2\GCCFOR~1.201\rx-elf\rx-elf/lib/gcc/rx-elf/4.8.0.201603-GNURX/no-fpu-libs\libgcc.a(_sf_to_si.o)
 D_1            0x00000204        0x0 C:\PROGRA~2\GCCFOR~1.201\rx-elf\rx-elf/lib/gcc/rx-elf/4.8.0.201603-GNURX/no-fpu-libs\libgcc.a(_thenan_sf.o)
 D_1            0x00000204        0x0 C:\PROGRA~2\GCCFOR~1.201\rx-elf\rx-elf/lib/gcc/rx-elf/4.8.0.201603-GNURX/no-fpu-libs\libgcc.a(_pack_sf.o)
 D_1            0x00000204        0x0 C:\PROGRA~2\GCCFOR~1.201\rx-elf\rx-elf/lib/gcc/rx-elf/4.8.0.201603-GNURX/no-fpu-libs\libgcc.a(_unpack_sf.o)
 *(D_2)
                0x00000204                _edata = .

.gcc_exc
 *(.gcc_exc)

.bss            0x00000204        0x4 load address 0xfff814d8
                0x00000204                _bss = .
 *(.bss)
 *(.bss.**)
 *(COMMON)
 *(B)
 B              0x00000204        0x4 ./src/rx210.o
                0x00000204                compteur
 *(B_1)
 B_1            0x00000208        0x0 ./src/asservissement/asservissement.o
 B_1            0x00000208        0x0 ./src/encoder/decoder_quadra.o
 B_1            0x00000208        0x0 ./src/hardware_setup.o
 B_1            0x00000208        0x0 ./src/reset_program.o
 B_1            0x00000208        0x0 ./src/rx210.o
 B_1            0x00000208        0x0 ./src/vector_table.o
 B_1            0x00000208        0x0 ./src/interrupt/interrupt_handlers.o
 B_1            0x00000208        0x0 ./src/pwm/pwm_asser_RX210.o
 B_1            0x00000208        0x0 ./src/uart/uart.o
 B_1            0x00000208        0x0 C:\PROGRA~2\GCCFOR~1.201\rx-elf\rx-elf/lib/gcc/rx-elf/4.8.0.201603-GNURX/no-fpu-libs\libgcc.a(_addsub_sf.o)
 B_1            0x00000208        0x0 C:\PROGRA~2\GCCFOR~1.201\rx-elf\rx-elf/lib/gcc/rx-elf/4.8.0.201603-GNURX/no-fpu-libs\libgcc.a(_mul_sf.o)
 B_1            0x00000208        0x0 C:\PROGRA~2\GCCFOR~1.201\rx-elf\rx-elf/lib/gcc/rx-elf/4.8.0.201603-GNURX/no-fpu-libs\libgcc.a(_div_sf.o)
 B_1            0x00000208        0x0 C:\PROGRA~2\GCCFOR~1.201\rx-elf\rx-elf/lib/gcc/rx-elf/4.8.0.201603-GNURX/no-fpu-libs\libgcc.a(_sf_to_si.o)
 B_1            0x00000208        0x0 C:\PROGRA~2\GCCFOR~1.201\rx-elf\rx-elf/lib/gcc/rx-elf/4.8.0.201603-GNURX/no-fpu-libs\libgcc.a(_thenan_sf.o)
 B_1            0x00000208        0x0 C:\PROGRA~2\GCCFOR~1.201\rx-elf\rx-elf/lib/gcc/rx-elf/4.8.0.201603-GNURX/no-fpu-libs\libgcc.a(_pack_sf.o)
 B_1            0x00000208        0x0 C:\PROGRA~2\GCCFOR~1.201\rx-elf\rx-elf/lib/gcc/rx-elf/4.8.0.201603-GNURX/no-fpu-libs\libgcc.a(_unpack_sf.o)
 *(B_2)
                0x00000208                _ebss = .
                0x00000208                _end = .
LOAD ./src/asservissement/asservissement.o
LOAD ./src/encoder/decoder_quadra.o
LOAD ./src/hardware_setup.o
LOAD ./src/reset_program.o
LOAD ./src/rx210.o
LOAD ./src/vector_table.o
LOAD ./src/interrupt/interrupt_handlers.o
LOAD ./src/pwm/pwm_asser_RX210.o
LOAD ./src/uart/uart.o
START GROUP
LOAD C:\PROGRA~2\GCCFOR~1.201\rx-elf\rx-elf/rx-elf/lib/no-fpu-libs\liboptm.a
LOAD C:\PROGRA~2\GCCFOR~1.201\rx-elf\rx-elf/rx-elf/lib/no-fpu-libs\liboptc.a
LOAD C:\PROGRA~2\GCCFOR~1.201\rx-elf\rx-elf/lib/gcc/rx-elf/4.8.0.201603-GNURX/no-fpu-libs\libgcc.a
END GROUP
OUTPUT(rx210.x elf32-rx-le)

.debug_frame    0x00000000     0x1788
 .debug_frame   0x00000000       0x74 ./src/asservissement/asservissement.o
 .debug_frame   0x00000074       0x6c ./src/encoder/decoder_quadra.o
 .debug_frame   0x000000e0       0x40 ./src/hardware_setup.o
 .debug_frame   0x00000120       0x40 ./src/rx210.o
 .debug_frame   0x00000160     0x15a0 ./src/interrupt/interrupt_handlers.o
 .debug_frame   0x00001700       0x48 ./src/pwm/pwm_asser_RX210.o
 .debug_frame   0x00001748       0x40 ./src/uart/uart.o

.debug_info     0x00000000    0x109bd
 .debug_info    0x00000000     0x36ac ./src/asservissement/asservissement.o
 .debug_info    0x000036ac     0x2606 ./src/encoder/decoder_quadra.o
 .debug_info    0x00005cb2     0x588c ./src/hardware_setup.o
 .debug_info    0x0000b53e       0x85 ./src/reset_program.o
 .debug_info    0x0000b5c3      0xacc ./src/rx210.o
 .debug_info    0x0000c08f       0x84 ./src/vector_table.o
 .debug_info    0x0000c113     0x1e26 ./src/interrupt/interrupt_handlers.o
 .debug_info    0x0000df39      0xc38 ./src/pwm/pwm_asser_RX210.o
 .debug_info    0x0000eb71     0x1e4c ./src/uart/uart.o

.debug_abbrev   0x00000000      0x7f2
 .debug_abbrev  0x00000000      0x165 ./src/asservissement/asservissement.o
 .debug_abbrev  0x00000165      0x115 ./src/encoder/decoder_quadra.o
 .debug_abbrev  0x0000027a       0xfb ./src/hardware_setup.o
 .debug_abbrev  0x00000375       0x14 ./src/reset_program.o
 .debug_abbrev  0x00000389       0xdd ./src/rx210.o
 .debug_abbrev  0x00000466       0x67 ./src/vector_table.o
 .debug_abbrev  0x000004cd      0x131 ./src/interrupt/interrupt_handlers.o
 .debug_abbrev  0x000005fe       0xee ./src/pwm/pwm_asser_RX210.o
 .debug_abbrev  0x000006ec      0x106 ./src/uart/uart.o

.debug_aranges  0x00000000      0x118
 .debug_aranges
                0x00000000       0x20 ./src/asservissement/asservissement.o
 .debug_aranges
                0x00000020       0x20 ./src/encoder/decoder_quadra.o
 .debug_aranges
                0x00000040       0x20 ./src/hardware_setup.o
 .debug_aranges
                0x00000060       0x20 ./src/reset_program.o
 .debug_aranges
                0x00000080       0x20 ./src/rx210.o
 .debug_aranges
                0x000000a0       0x18 ./src/vector_table.o
 .debug_aranges
                0x000000b8       0x20 ./src/interrupt/interrupt_handlers.o
 .debug_aranges
                0x000000d8       0x20 ./src/pwm/pwm_asser_RX210.o
 .debug_aranges
                0x000000f8       0x20 ./src/uart/uart.o

.debug_line     0x00000000      0x62f
 .debug_line    0x00000000       0xbc ./src/asservissement/asservissement.o
 .debug_line    0x000000bc       0xb5 ./src/encoder/decoder_quadra.o
 .debug_line    0x00000171       0x86 ./src/hardware_setup.o
 .debug_line    0x000001f7       0x6d ./src/reset_program.o
 .debug_line    0x00000264       0x61 ./src/rx210.o
 .debug_line    0x000002c5       0x36 ./src/vector_table.o
 .debug_line    0x000002fb      0x1fa ./src/interrupt/interrupt_handlers.o
 .debug_line    0x000004f5       0xa0 ./src/pwm/pwm_asser_RX210.o
 .debug_line    0x00000595       0x9a ./src/uart/uart.o

.debug_str      0x00000000     0x3b2d
 .debug_str     0x00000000     0x20ad ./src/asservissement/asservissement.o
                               0x212c (size before relaxing)
 .debug_str     0x000020ad       0x6c ./src/encoder/decoder_quadra.o
                                0x9c8 (size before relaxing)
 .debug_str     0x00002119      0x429 ./src/hardware_setup.o
                                0xbaf (size before relaxing)
 .debug_str     0x00002542       0x14 ./src/rx210.o
                                0x11d (size before relaxing)
 .debug_str     0x00002556       0x39 ./src/vector_table.o
                                 0xd1 (size before relaxing)
 .debug_str     0x0000258f     0x145d ./src/interrupt/interrupt_handlers.o
                               0x1730 (size before relaxing)
 .debug_str     0x000039ec       0x3e ./src/pwm/pwm_asser_RX210.o
                                0x31f (size before relaxing)
 .debug_str     0x00003a2a      0x103 ./src/uart/uart.o
                                0x8df (size before relaxing)

.comment        0x00000000       0x2d
 .comment       0x00000000       0x2d ./src/asservissement/asservissement.o
                                 0x2e (size before relaxing)
 .comment       0x00000000       0x2e ./src/encoder/decoder_quadra.o
 .comment       0x00000000       0x2e ./src/hardware_setup.o
 .comment       0x00000000       0x2e ./src/rx210.o
 .comment       0x00000000       0x2e ./src/vector_table.o
 .comment       0x00000000       0x2e ./src/interrupt/interrupt_handlers.o
 .comment       0x00000000       0x2e ./src/pwm/pwm_asser_RX210.o
 .comment       0x00000000       0x2e ./src/uart/uart.o
 .comment       0x00000000       0x2e C:\PROGRA~2\GCCFOR~1.201\rx-elf\rx-elf/lib/gcc/rx-elf/4.8.0.201603-GNURX/no-fpu-libs\libgcc.a(_addsub_sf.o)
 .comment       0x00000000       0x2e C:\PROGRA~2\GCCFOR~1.201\rx-elf\rx-elf/lib/gcc/rx-elf/4.8.0.201603-GNURX/no-fpu-libs\libgcc.a(_mul_sf.o)
 .comment       0x00000000       0x2e C:\PROGRA~2\GCCFOR~1.201\rx-elf\rx-elf/lib/gcc/rx-elf/4.8.0.201603-GNURX/no-fpu-libs\libgcc.a(_div_sf.o)
 .comment       0x00000000       0x2e C:\PROGRA~2\GCCFOR~1.201\rx-elf\rx-elf/lib/gcc/rx-elf/4.8.0.201603-GNURX/no-fpu-libs\libgcc.a(_sf_to_si.o)
 .comment       0x00000000       0x2e C:\PROGRA~2\GCCFOR~1.201\rx-elf\rx-elf/lib/gcc/rx-elf/4.8.0.201603-GNURX/no-fpu-libs\libgcc.a(_thenan_sf.o)
 .comment       0x00000000       0x2e C:\PROGRA~2\GCCFOR~1.201\rx-elf\rx-elf/lib/gcc/rx-elf/4.8.0.201603-GNURX/no-fpu-libs\libgcc.a(_pack_sf.o)
 .comment       0x00000000       0x2e C:\PROGRA~2\GCCFOR~1.201\rx-elf\rx-elf/lib/gcc/rx-elf/4.8.0.201603-GNURX/no-fpu-libs\libgcc.a(_unpack_sf.o)
